(dp1
S'OriginalConfig'
p2
ccopy_reg
_reconstructor
p3
(cWMCore.Configuration
Configuration
p4
c__builtin__
object
p5
NtRp6
(dp7
S'Site'
p8
g3
(cWMCore.Configuration
ConfigSection
p9
g5
NtRp10
(dp11
S'_internal_skipChecks'
p12
I00
sS'_internal_documentation'
p13
S''
sS'_internal_settings'
p14
c__builtin__
set
p15
((lp16
S'storageSite'
p17
atRp18
sS'_internal_name'
p19
g8
sS'_internal_docstrings'
p20
(dp21
sS'_internal_children'
p22
g15
((ltRp23
sg17
S'T2_KR_KNU'
p24
sS'_internal_parent_ref'
p25
NsbsS'_internal_sections'
p26
(lp27
S'General'
p28
aS'JobType'
p29
aS'Data'
p30
ag8
aS'User'
p31
aS'Debug'
p32
asg28
g3
(g9
g5
NtRp33
(dp34
S'transferLogs'
p35
I00
sg12
I00
sg13
S''
sg14
g15
((lp36
g35
aS'transferOutputs'
p37
aS'workArea'
p38
aS'requestName'
p39
atRp40
sg19
g28
sg20
(dp41
sg37
I01
sg22
g15
((ltRp42
sg39
S'DY_M_50_120_HLT_Ele23_Ele12_mAOD_94X_mc2017_realistic_v10'
p43
sg25
Nsg38
S'crab_DY_powheg_M_50_120_HLT_Ele23_Ele12_CaloIdL_TrackIdL_IsoVL_94X_mc2017_realistic_v10'
p44
sbsS'_internal_webapps'
p45
(lp46
sg31
g3
(g9
g5
NtRp47
(dp48
g12
I00
sg13
S''
sg14
g15
((ltRp49
sg19
g31
sg20
(dp50
sg22
g15
((ltRp51
sg25
NsbsS'_internal_components'
p52
(lp53
sg32
g3
(g9
g5
NtRp54
(dp55
g12
I00
sg13
S''
sg14
g15
((ltRp56
sg19
g32
sg20
(dp57
sg22
g15
((ltRp58
sg25
Nsbsg30
g3
(g9
g5
NtRp59
(dp60
S'inputDataset'
p61
S'/ZToEE_NNPDF31_13TeV-powheg_M_50_120/RunIIFall17MiniAOD-94X_mc2017_realistic_v10-v2/MINIAODSIM'
p62
sS'outputDatasetTag'
p63
S'DY_powheg_M_50_120_MINIAODSIM_HLT_Ele23_Ele12_CaloIdL_TrackIdL_IsoVL_94X_mc2017_realistic_v10'
p64
sg12
I00
sS'unitsPerJob'
p65
I1
sg13
S''
sg14
g15
((lp66
g61
ag65
ag63
aS'splitting'
p67
aS'outLFNDirBase'
p68
atRp69
sg19
g30
sg67
S'FileBased'
p70
sg20
(dp71
sg22
g15
((ltRp72
sg68
S'/store/user/jhkim/'
p73
sg25
Nsbsg29
g3
(g9
g5
NtRp74
(dp75
g12
I00
sg13
S''
sg14
g15
((lp76
S'psetName'
p77
aS'pluginName'
p78
atRp79
sg19
g29
sg20
(dp80
sg78
S'Analysis'
p81
sg22
g15
((ltRp82
sg77
S'TnP_Ele23_Ele12_MC_v2.py'
p83
sg25
NsbsbsS'voGroup'
p84
S''
sS'Server'
p85
S'cmsweb.cern.ch'
p86
sS'instance'
p87
S'prod'
p88
sS'RequestName'
p89
V180506_054718:jhkim_crab_DY_M_50_120_HLT_Ele23_Ele12_mAOD_94X_mc2017_realistic_v10
p90
sS'voRole'
p91
S'NULL'
p92
sS'Port'
p93
S''
s.